; Function Attrs: mustprogress nofree norecurse nosync nounwind willreturn memory(argmem: readwrite) uwtable
define internal void @_ZN5faiss12_GLOBAL__N_114FlatHammingDisINS_17HammingComputer20EE9set_queryEPKf(ptr nocapture noundef nonnull writeonly align 8 dereferenceable(56) %0, ptr nocapture noundef readonly %1) unnamed_addr #17 align 2 {
  %3 = getelementptr inbounds i8, ptr %0, i64 32
  %4 = load i64, ptr %1, align 8
  store i64 %4, ptr %3, align 8
  %5 = getelementptr inbounds i8, ptr %1, i64 8
  %6 = load i64, ptr %5, align 8
  %7 = getelementptr inbounds i8, ptr %0, i64 40
  store i64 %6, ptr %7, align 8
  %8 = getelementptr inbounds i8, ptr %1, i64 16
  %9 = load i64, ptr %8, align 8
  %10 = trunc i64 %9 to i32
  %11 = getelementptr inbounds i8, ptr %0, i64 48
  store i32 %10, ptr %11, align 8
  ret void
}